target datalayout = "e-m:e-p270:32:32-p271:32:32-p272:64:64-i64:64-i128:128-f80:128-n8:16:32:64-S128"
target triple = "x86_64-pc-linux-gnu"

%struct.DdManager = type { %struct.DdNode, ptr, ptr, ptr, ptr, ptr, ptr, ptr, i32, i32, double, double, double, i32, i32, i32, i32, i32, i32, ptr, ptr, %struct.DdSubtable, i32, i32, i32, i32, i32, i32, i32, double, i32, i32, i32, ptr, i64, double, i32, ptr, ptr, ptr, ptr, ptr, ptr, ptr, i32, ptr, ptr, ptr, ptr, ptr, ptr, i32, i32, i32, double, i32, i32, i32, i32, double, double, i32, i32, i32, i32, i32, i32, i32, i32, i32, ptr, ptr, i32, i32, i32, i32, i32, i32, ptr, ptr, ptr, ptr, ptr, ptr, ptr, ptr, i32, i64, i64, i64, i32, i64, i64, double, double, double, double, double, double, i32, ptr, ptr, i64 }
%struct.DdNode = type { i32, i32, ptr, %union.anon, i64 }
%union.anon = type { %struct.DdChildren }
%struct.DdChildren = type { ptr, ptr }
%struct.DdSubtable = type { ptr, i32, i32, i32, i32, i32, i32, i32, i32, i32, i32, i32 }

; Function Attrs: nounwind uwtable
define ptr @extraZddGetSingletonsBoth(ptr noundef %0, ptr noundef %1) #0 {
  %3 = alloca ptr, align 8
  %4 = alloca ptr, align 8
  %5 = alloca ptr, align 8
  %6 = alloca ptr, align 8
  %7 = alloca i32, align 4
  %8 = alloca ptr, align 8
  %9 = alloca ptr, align 8
  store ptr %0, ptr %4, align 8, !tbaa !3
  store ptr %1, ptr %5, align 8, !tbaa !8
  call void @llvm.lifetime.start.p0(i64 8, ptr %6) #6
  %10 = load ptr, ptr %5, align 8, !tbaa !8
  %11 = load ptr, ptr %4, align 8, !tbaa !3
  %12 = getelementptr inbounds nuw %struct.DdManager, ptr %11, i32 0, i32 1
  %13 = load ptr, ptr %12, align 8, !tbaa !37
  %14 = icmp eq ptr %10, %13
  br i1 %14, label %15, label %19

15:                                               ; preds = %2
  %16 = load ptr, ptr %4, align 8, !tbaa !3
  %17 = getelementptr inbounds nuw %struct.DdManager, ptr %16, i32 0, i32 1
  %18 = load ptr, ptr %17, align 8, !tbaa !37
  store ptr %18, ptr %3, align 8
  store i32 1, ptr %7, align 4
  br label %153

19:                                               ; preds = %2
  %20 = load ptr, ptr %4, align 8, !tbaa !3
  %21 = load ptr, ptr %5, align 8, !tbaa !8
  %22 = call ptr @cuddCacheLookup1Zdd(ptr noundef %20, ptr noundef @extraZddGetSingletonsBoth, ptr noundef %21)
  store ptr %22, ptr %6, align 8, !tbaa !8
  %23 = icmp ne ptr %22, null
  br i1 %23, label %24, label %26

24:                                               ; preds = %19
  %25 = load ptr, ptr %6, align 8, !tbaa !8
  store ptr %25, ptr %3, align 8
  store i32 1, ptr %7, align 4
  br label %153

26:                                               ; preds = %19
  call void @llvm.lifetime.start.p0(i64 8, ptr %8) #6
  call void @llvm.lifetime.start.p0(i64 8, ptr %9) #6
  %27 = load ptr, ptr %4, align 8, !tbaa !3
  %28 = load ptr, ptr %5, align 8, !tbaa !8
  %29 = getelementptr inbounds nuw %struct.DdNode, ptr %28, i32 0, i32 3
  %30 = getelementptr inbounds nuw %struct.DdChildren, ptr %29, i32 0, i32 0
  %31 = load ptr, ptr %30, align 8, !tbaa !40
  %32 = call ptr @extraZddGetSingletonsBoth(ptr noundef %27, ptr noundef %31)
  store ptr %32, ptr %6, align 8, !tbaa !8
  %33 = load ptr, ptr %6, align 8, !tbaa !8
  %34 = icmp eq ptr %33, null
  br i1 %34, label %35, label %36

35:                                               ; preds = %26
  store ptr null, ptr %3, align 8
  store i32 1, ptr %7, align 4
  br label %152

36:                                               ; preds = %26
  %37 = load ptr, ptr %6, align 8, !tbaa !8
  %38 = ptrtoint ptr %37 to i64
  %39 = and i64 %38, -2
  %40 = inttoptr i64 %39 to ptr
  %41 = getelementptr inbounds nuw %struct.DdNode, ptr %40, i32 0, i32 1
  %42 = load i32, ptr %41, align 4, !tbaa !47
  %43 = add i32 %42, 1
  store i32 %43, ptr %41, align 4, !tbaa !47
  %44 = load ptr, ptr %4, align 8, !tbaa !3
  %45 = load ptr, ptr %5, align 8, !tbaa !8
  %46 = getelementptr inbounds nuw %struct.DdNode, ptr %45, i32 0, i32 0
  %47 = load i32, ptr %46, align 8, !tbaa !38
  %48 = mul i32 2, %47
  %49 = add i32 %48, 1
  %50 = load ptr, ptr %4, align 8, !tbaa !3
  %51 = getelementptr inbounds nuw %struct.DdManager, ptr %50, i32 0, i32 1
  %52 = load ptr, ptr %51, align 8, !tbaa !37
  %53 = load ptr, ptr %4, align 8, !tbaa !3
  %54 = getelementptr inbounds nuw %struct.DdManager, ptr %53, i32 0, i32 2
  %55 = load ptr, ptr %54, align 8, !tbaa !42
  %56 = call ptr @cuddZddGetNode(ptr noundef %44, i32 noundef %49, ptr noundef %52, ptr noundef %55)
  store ptr %56, ptr %9, align 8, !tbaa !8
  %57 = load ptr, ptr %9, align 8, !tbaa !8
  %58 = icmp eq ptr %57, null
  br i1 %58, label %59, label %62

59:                                               ; preds = %36
  %60 = load ptr, ptr %4, align 8, !tbaa !3
  %61 = load ptr, ptr %6, align 8, !tbaa !8
  call void @Cudd_RecursiveDerefZdd(ptr noundef %60, ptr noundef %61)
  store ptr null, ptr %3, align 8
  store i32 1, ptr %7, align 4
  br label %152

62:                                               ; preds = %36
  %63 = load ptr, ptr %9, align 8, !tbaa !8
  %64 = ptrtoint ptr %63 to i64
  %65 = and i64 %64, -2
  %66 = inttoptr i64 %65 to ptr
  %67 = getelementptr inbounds nuw %struct.DdNode, ptr %66, i32 0, i32 1
  %68 = load i32, ptr %67, align 4, !tbaa !47
  %69 = add i32 %68, 1
  store i32 %69, ptr %67, align 4, !tbaa !47
  %70 = load ptr, ptr %4, align 8, !tbaa !3
  %71 = load ptr, ptr %6, align 8, !tbaa !8
  store ptr %71, ptr %8, align 8, !tbaa !8
  %72 = load ptr, ptr %9, align 8, !tbaa !8
  %73 = call ptr @cuddZddUnion(ptr noundef %70, ptr noundef %71, ptr noundef %72)
  store ptr %73, ptr %6, align 8, !tbaa !8
  %74 = load ptr, ptr %6, align 8, !tbaa !8
  %75 = icmp eq ptr %74, null
  br i1 %75, label %76, label %81

76:                                               ; preds = %62
  %77 = load ptr, ptr %4, align 8, !tbaa !3
  %78 = load ptr, ptr %8, align 8, !tbaa !8
  call void @Cudd_RecursiveDerefZdd(ptr noundef %77, ptr noundef %78)
  %79 = load ptr, ptr %4, align 8, !tbaa !3
  %80 = load ptr, ptr %9, align 8, !tbaa !8
  call void @Cudd_RecursiveDerefZdd(ptr noundef %79, ptr noundef %80)
  store ptr null, ptr %3, align 8
  store i32 1, ptr %7, align 4
  br label %152

81:                                               ; preds = %62
  %82 = load ptr, ptr %6, align 8, !tbaa !8
  %83 = ptrtoint ptr %82 to i64
  %84 = and i64 %83, -2
  %85 = inttoptr i64 %84 to ptr
  %86 = getelementptr inbounds nuw %struct.DdNode, ptr %85, i32 0, i32 1
  %87 = load i32, ptr %86, align 4, !tbaa !47
  %88 = add i32 %87, 1
  store i32 %88, ptr %86, align 4, !tbaa !47
  %89 = load ptr, ptr %4, align 8, !tbaa !3
  %90 = load ptr, ptr %8, align 8, !tbaa !8
  call void @Cudd_RecursiveDerefZdd(ptr noundef %89, ptr noundef %90)
  %91 = load ptr, ptr %4, align 8, !tbaa !3
  %92 = load ptr, ptr %9, align 8, !tbaa !8
  call void @Cudd_RecursiveDerefZdd(ptr noundef %91, ptr noundef %92)
  %93 = load ptr, ptr %4, align 8, !tbaa !3
  %94 = load ptr, ptr %5, align 8, !tbaa !8
  %95 = getelementptr inbounds nuw %struct.DdNode, ptr %94, i32 0, i32 0
  %96 = load i32, ptr %95, align 8, !tbaa !38
  %97 = mul i32 2, %96
  %98 = load ptr, ptr %4, align 8, !tbaa !3
  %99 = getelementptr inbounds nuw %struct.DdManager, ptr %98, i32 0, i32 1
  %100 = load ptr, ptr %99, align 8, !tbaa !37
  %101 = load ptr, ptr %4, align 8, !tbaa !3
  %102 = getelementptr inbounds nuw %struct.DdManager, ptr %101, i32 0, i32 2
  %103 = load ptr, ptr %102, align 8, !tbaa !42
  %104 = call ptr @cuddZddGetNode(ptr noundef %93, i32 noundef %97, ptr noundef %100, ptr noundef %103)
  store ptr %104, ptr %9, align 8, !tbaa !8
  %105 = load ptr, ptr %9, align 8, !tbaa !8
  %106 = icmp eq ptr %105, null
  br i1 %106, label %107, label %110

107:                                              ; preds = %81
  %108 = load ptr, ptr %4, align 8, !tbaa !3
  %109 = load ptr, ptr %6, align 8, !tbaa !8
  call void @Cudd_RecursiveDerefZdd(ptr noundef %108, ptr noundef %109)
  store ptr null, ptr %3, align 8
  store i32 1, ptr %7, align 4
  br label %152

110:                                              ; preds = %81
  %111 = load ptr, ptr %9, align 8, !tbaa !8
  %112 = ptrtoint ptr %111 to i64
  %113 = and i64 %112, -2
  %114 = inttoptr i64 %113 to ptr
  %115 = getelementptr inbounds nuw %struct.DdNode, ptr %114, i32 0, i32 1
  %116 = load i32, ptr %115, align 4, !tbaa !47
  %117 = add i32 %116, 1
  store i32 %117, ptr %115, align 4, !tbaa !47
  %118 = load ptr, ptr %4, align 8, !tbaa !3
  %119 = load ptr, ptr %6, align 8, !tbaa !8
  store ptr %119, ptr %8, align 8, !tbaa !8
  %120 = load ptr, ptr %9, align 8, !tbaa !8
  %121 = call ptr @cuddZddUnion(ptr noundef %118, ptr noundef %119, ptr noundef %120)
  store ptr %121, ptr %6, align 8, !tbaa !8
  %122 = load ptr, ptr %6, align 8, !tbaa !8
  %123 = icmp eq ptr %122, null
  br i1 %123, label %124, label %129

124:                                              ; preds = %110
  %125 = load ptr, ptr %4, align 8, !tbaa !3
  %126 = load ptr, ptr %8, align 8, !tbaa !8
  call void @Cudd_RecursiveDerefZdd(ptr noundef %125, ptr noundef %126)
  %127 = load ptr, ptr %4, align 8, !tbaa !3
  %128 = load ptr, ptr %9, align 8, !tbaa !8
  call void @Cudd_RecursiveDerefZdd(ptr noundef %127, ptr noundef %128)
  store ptr null, ptr %3, align 8
  store i32 1, ptr %7, align 4
  br label %152

129:                                              ; preds = %110
  %130 = load ptr, ptr %6, align 8, !tbaa !8
  %131 = ptrtoint ptr %130 to i64
  %132 = and i64 %131, -2
  %133 = inttoptr i64 %132 to ptr
  %134 = getelementptr inbounds nuw %struct.DdNode, ptr %133, i32 0, i32 1
  %135 = load i32, ptr %134, align 4, !tbaa !47
  %136 = add i32 %135, 1
  store i32 %136, ptr %134, align 4, !tbaa !47
  %137 = load ptr, ptr %4, align 8, !tbaa !3
  %138 = load ptr, ptr %8, align 8, !tbaa !8
  call void @Cudd_RecursiveDerefZdd(ptr noundef %137, ptr noundef %138)
  %139 = load ptr, ptr %4, align 8, !tbaa !3
  %140 = load ptr, ptr %9, align 8, !tbaa !8
  call void @Cudd_RecursiveDerefZdd(ptr noundef %139, ptr noundef %140)
  %141 = load ptr, ptr %6, align 8, !tbaa !8
  %142 = ptrtoint ptr %141 to i64
  %143 = and i64 %142, -2
  %144 = inttoptr i64 %143 to ptr
  %145 = getelementptr inbounds nuw %struct.DdNode, ptr %144, i32 0, i32 1
  %146 = load i32, ptr %145, align 4, !tbaa !47
  %147 = add i32 %146, -1
  store i32 %147, ptr %145, align 4, !tbaa !47
  %148 = load ptr, ptr %4, align 8, !tbaa !3
  %149 = load ptr, ptr %5, align 8, !tbaa !8
  %150 = load ptr, ptr %6, align 8, !tbaa !8
  call void @cuddCacheInsert1(ptr noundef %148, ptr noundef @extraZddGetSingletonsBoth, ptr noundef %149, ptr noundef %150)
  %151 = load ptr, ptr %6, align 8, !tbaa !8
  store ptr %151, ptr %3, align 8
  store i32 1, ptr %7, align 4
  br label %152

152:                                              ; preds = %129, %124, %107, %76, %59, %35
  call void @llvm.lifetime.end.p0(i64 8, ptr %9) #6
  call void @llvm.lifetime.end.p0(i64 8, ptr %8) #6
  br label %153

153:                                              ; preds = %152, %24, %15
  call void @llvm.lifetime.end.p0(i64 8, ptr %6) #6
  %154 = load ptr, ptr %3, align 8
  ret ptr %154
}