; Function Attrs: nounwind uwtable
define ptr @extraZddGetSingletonsBoth(ptr noundef %0, ptr noundef %1) #0 {
  %3 = getelementptr inbounds nuw i8, ptr %0, i64 40
  %4 = load ptr, ptr %3, align 8, !tbaa !32
  %5 = icmp eq ptr %1, %4
  br i1 %5, label %72, label %6

6:                                                ; preds = %2
  %7 = tail call ptr @cuddCacheLookup1Zdd(ptr noundef nonnull %0, ptr noundef nonnull @extraZddGetSingletonsBoth, ptr noundef %1) #9
  %.not = icmp eq ptr %7, null
  br i1 %.not, label %8, label %72

8:                                                ; preds = %6
  %9 = getelementptr inbounds nuw i8, ptr %1, i64 16
  %10 = load ptr, ptr %9, align 8, !tbaa !35
  %11 = tail call ptr @extraZddGetSingletonsBoth(ptr noundef nonnull %0, ptr noundef %10)
  %12 = icmp eq ptr %11, null
  br i1 %12, label %72, label %13

13:                                               ; preds = %8
  %14 = ptrtoint ptr %11 to i64
  %15 = and i64 %14, -2
  %16 = inttoptr i64 %15 to ptr
  %17 = getelementptr inbounds nuw i8, ptr %16, i64 4
  %18 = load i32, ptr %17, align 4, !tbaa !42
  %19 = add i32 %18, 1
  store i32 %19, ptr %17, align 4, !tbaa !42
  %20 = load i32, ptr %1, align 8, !tbaa !33
  %21 = shl i32 %20, 1
  %22 = or disjoint i32 %21, 1
  %23 = load ptr, ptr %3, align 8, !tbaa !32
  %24 = getelementptr inbounds nuw i8, ptr %0, i64 48
  %25 = load ptr, ptr %24, align 8, !tbaa !37
  %26 = tail call ptr @cuddZddGetNode(ptr noundef nonnull %0, i32 noundef %22, ptr noundef %23, ptr noundef %25) #9
  %27 = icmp eq ptr %26, null
  br i1 %27, label %28, label %29

28:                                               ; preds = %13
  tail call void @Cudd_RecursiveDerefZdd(ptr noundef nonnull %0, ptr noundef nonnull %11) #9
  br label %72

29:                                               ; preds = %13
  %30 = ptrtoint ptr %26 to i64
  %31 = and i64 %30, -2
  %32 = inttoptr i64 %31 to ptr
  %33 = getelementptr inbounds nuw i8, ptr %32, i64 4
  %34 = load i32, ptr %33, align 4, !tbaa !42
  %35 = add i32 %34, 1
  store i32 %35, ptr %33, align 4, !tbaa !42
  %36 = tail call ptr @cuddZddUnion(ptr noundef nonnull %0, ptr noundef nonnull %11, ptr noundef nonnull %26) #9
  %37 = icmp eq ptr %36, null
  br i1 %37, label %38, label %39

38:                                               ; preds = %29
  tail call void @Cudd_RecursiveDerefZdd(ptr noundef nonnull %0, ptr noundef nonnull %11) #9
  tail call void @Cudd_RecursiveDerefZdd(ptr noundef nonnull %0, ptr noundef nonnull %26) #9
  br label %72

39:                                               ; preds = %29
  %40 = ptrtoint ptr %36 to i64
  %41 = and i64 %40, -2
  %42 = inttoptr i64 %41 to ptr
  %43 = getelementptr inbounds nuw i8, ptr %42, i64 4
  %44 = load i32, ptr %43, align 4, !tbaa !42
  %45 = add i32 %44, 1
  store i32 %45, ptr %43, align 4, !tbaa !42
  tail call void @Cudd_RecursiveDerefZdd(ptr noundef nonnull %0, ptr noundef nonnull %11) #9
  tail call void @Cudd_RecursiveDerefZdd(ptr noundef nonnull %0, ptr noundef nonnull %26) #9
  %46 = load i32, ptr %1, align 8, !tbaa !33
  %47 = shl i32 %46, 1
  %48 = load ptr, ptr %3, align 8, !tbaa !32
  %49 = load ptr, ptr %24, align 8, !tbaa !37
  %50 = tail call ptr @cuddZddGetNode(ptr noundef nonnull %0, i32 noundef %47, ptr noundef %48, ptr noundef %49) #9
  %51 = icmp eq ptr %50, null
  br i1 %51, label %52, label %53

52:                                               ; preds = %39
  tail call void @Cudd_RecursiveDerefZdd(ptr noundef nonnull %0, ptr noundef nonnull %36) #9
  br label %72

53:                                               ; preds = %39
  %54 = ptrtoint ptr %50 to i64
  %55 = and i64 %54, -2
  %56 = inttoptr i64 %55 to ptr
  %57 = getelementptr inbounds nuw i8, ptr %56, i64 4
  %58 = load i32, ptr %57, align 4, !tbaa !42
  %59 = add i32 %58, 1
  store i32 %59, ptr %57, align 4, !tbaa !42
  %60 = tail call ptr @cuddZddUnion(ptr noundef nonnull %0, ptr noundef nonnull %36, ptr noundef nonnull %50) #9
  %61 = icmp eq ptr %60, null
  br i1 %61, label %62, label %63

62:                                               ; preds = %53
  tail call void @Cudd_RecursiveDerefZdd(ptr noundef nonnull %0, ptr noundef nonnull %36) #9
  tail call void @Cudd_RecursiveDerefZdd(ptr noundef nonnull %0, ptr noundef nonnull %50) #9
  br label %72

63:                                               ; preds = %53
  %64 = ptrtoint ptr %60 to i64
  %65 = and i64 %64, -2
  %66 = inttoptr i64 %65 to ptr
  %67 = getelementptr inbounds nuw i8, ptr %66, i64 4
  %68 = load i32, ptr %67, align 4, !tbaa !42
  %69 = add i32 %68, 1
  store i32 %69, ptr %67, align 4, !tbaa !42
  tail call void @Cudd_RecursiveDerefZdd(ptr noundef nonnull %0, ptr noundef nonnull %36) #9
  tail call void @Cudd_RecursiveDerefZdd(ptr noundef nonnull %0, ptr noundef nonnull %50) #9
  %70 = load i32, ptr %67, align 4, !tbaa !42
  %71 = add i32 %70, -1
  store i32 %71, ptr %67, align 4, !tbaa !42
  tail call void @cuddCacheInsert1(ptr noundef nonnull %0, ptr noundef nonnull @extraZddGetSingletonsBoth, ptr noundef nonnull %1, ptr noundef nonnull %60) #9
  br label %72

72:                                               ; preds = %28, %38, %52, %62, %63, %8, %6, %2
  %.0 = phi ptr [ %4, %2 ], [ %7, %6 ], [ null, %28 ], [ null, %38 ], [ null, %52 ], [ null, %62 ], [ %60, %63 ], [ null, %8 ]
  ret ptr %.0
}